target datalayout = "e-m:e-p270:32:32-p271:32:32-p272:64:64-i64:64-i128:128-f80:128-n8:16:32:64-S128"
target triple = "x86_64-pc-linux-gnu"

%struct.PHP_MURMUR3A_CTX = type { i32, i32, i32 }

; Function Attrs: nounwind uwtable
define i32 @PHP_MURMUR3ACopy(ptr noundef %0, ptr noundef %1, ptr noundef %2) #0 {
  %4 = alloca ptr, align 8
  %5 = alloca ptr, align 8
  %6 = alloca ptr, align 8
  store ptr %0, ptr %4, align 8
  store ptr %1, ptr %5, align 8
  store ptr %2, ptr %6, align 8
  %7 = load ptr, ptr %5, align 8
  %8 = getelementptr inbounds %struct.PHP_MURMUR3A_CTX, ptr %7, i32 0, i32 0
  %9 = load i32, ptr %8, align 4
  %10 = load ptr, ptr %6, align 8
  %11 = getelementptr inbounds %struct.PHP_MURMUR3A_CTX, ptr %10, i32 0, i32 0
  store i32 %9, ptr %11, align 4
  %12 = load ptr, ptr %5, align 8
  %13 = getelementptr inbounds %struct.PHP_MURMUR3A_CTX, ptr %12, i32 0, i32 1
  %14 = load i32, ptr %13, align 4
  %15 = load ptr, ptr %6, align 8
  %16 = getelementptr inbounds %struct.PHP_MURMUR3A_CTX, ptr %15, i32 0, i32 1
  store i32 %14, ptr %16, align 4
  %17 = load ptr, ptr %5, align 8
  %18 = getelementptr inbounds %struct.PHP_MURMUR3A_CTX, ptr %17, i32 0, i32 2
  %19 = load i32, ptr %18, align 4
  %20 = load ptr, ptr %6, align 8
  %21 = getelementptr inbounds %struct.PHP_MURMUR3A_CTX, ptr %20, i32 0, i32 2
  store i32 %19, ptr %21, align 4
  ret i32 0
}