; Function Attrs: mustprogress nofree norecurse nosync nounwind willreturn memory(argmem: readwrite) uwtable
define noundef i32 @PHP_MURMUR3ACopy(ptr nocapture readnone %0, ptr nocapture noundef readonly %1, ptr nocapture noundef writeonly %2) #1 {
  %4 = load i32, ptr %1, align 4
  store i32 %4, ptr %2, align 4
  %5 = getelementptr inbounds i8, ptr %1, i64 4
  %6 = load i32, ptr %5, align 4
  %7 = getelementptr inbounds i8, ptr %2, i64 4
  store i32 %6, ptr %7, align 4
  %8 = getelementptr inbounds i8, ptr %1, i64 8
  %9 = load i32, ptr %8, align 4
  %10 = getelementptr inbounds i8, ptr %2, i64 8
  store i32 %9, ptr %10, align 4
  ret i32 0
}